target datalayout = "e-m:e-p270:32:32-p271:32:32-p272:64:64-i64:64-i128:128-f80:128-n8:16:32:64-S128"
target triple = "x86_64-pc-linux-gnu"

%class.btScaledBvhTriangleMeshShape = type { %class.btConcaveShape.base, %class.btVector3, ptr }
%class.btConcaveShape.base = type <{ %class.btCollisionShape, float }>
%class.btCollisionShape = type { ptr, i32, ptr, i32, i32 }
%class.btVector3 = type { [4 x float] }

; Function Attrs: mustprogress uwtable
define dso_local void @_ZN28btScaledBvhTriangleMeshShapeC2EP22btBvhTriangleMeshShapeRK9btVector3(ptr noundef nonnull align 8 dereferenceable(64) %0, ptr noundef %1, ptr noundef nonnull align 4 dereferenceable(16) %2) unnamed_addr #2 align 2 {
  %4 = alloca ptr, align 8
  %5 = alloca ptr, align 8
  %6 = alloca ptr, align 8
  store ptr %0, ptr %4, align 8, !tbaa !12
  store ptr %1, ptr %5, align 8, !tbaa !14
  store ptr %2, ptr %6, align 8, !tbaa !16
  %7 = load ptr, ptr %4, align 8
  call void @_ZN14btConcaveShapeC2Ev(ptr noundef nonnull align 8 dereferenceable(36) %7)
  store ptr getelementptr inbounds inrange(-16, 136) ({ [19 x ptr] }, ptr @_ZTV28btScaledBvhTriangleMeshShape, i32 0, i32 0, i32 2), ptr %7, align 8, !tbaa !18
  %8 = getelementptr inbounds nuw %class.btScaledBvhTriangleMeshShape, ptr %7, i32 0, i32 1
  %9 = load ptr, ptr %6, align 8, !tbaa !16
  call void @llvm.memcpy.p0.p0.i64(ptr align 4 %8, ptr align 4 %9, i64 16, i1 false), !tbaa.struct !20
  %10 = getelementptr inbounds nuw %class.btScaledBvhTriangleMeshShape, ptr %7, i32 0, i32 2
  %11 = load ptr, ptr %5, align 8, !tbaa !14
  store ptr %11, ptr %10, align 8, !tbaa !21
  %12 = getelementptr inbounds nuw %class.btCollisionShape, ptr %7, i32 0, i32 1
  store i32 22, ptr %12, align 8, !tbaa !27
  ret void
}