; Function Attrs: mustprogress uwtable
define dso_local void @_ZN28btScaledBvhTriangleMeshShapeC2EP22btBvhTriangleMeshShapeRK9btVector3(ptr noundef nonnull align 8 dereferenceable(64) %0, ptr noundef %1, ptr noundef nonnull readonly align 4 captures(none) dereferenceable(16) %2) unnamed_addr #0 align 2 {
  tail call void @_ZN14btConcaveShapeC2Ev(ptr noundef nonnull align 8 dereferenceable(36) %0)
  store ptr getelementptr inbounds nuw inrange(-16, 136) (i8, ptr @_ZTV28btScaledBvhTriangleMeshShape, i64 16), ptr %0, align 8, !tbaa !4
  %4 = getelementptr inbounds nuw i8, ptr %0, i64 36
  tail call void @llvm.memcpy.p0.p0.i64(ptr noundef nonnull align 4 dereferenceable(16) %4, ptr noundef nonnull align 4 dereferenceable(16) %2, i64 16, i1 false), !tbaa.struct !7
  %5 = getelementptr inbounds nuw i8, ptr %0, i64 56
  store ptr %1, ptr %5, align 8, !tbaa !10
  %6 = getelementptr inbounds nuw i8, ptr %0, i64 8
  store i32 22, ptr %6, align 8, !tbaa !19
  ret void
}